; Function Attrs: nounwind uwtable
define ptr @l_Lean_RBNode_fold___at___private_Lean_Compiler_IR_LiveVars_0__Lean_IR_LiveVars_accumulate___spec__1(ptr noundef readnone captures(none) %0, ptr noundef %1, ptr noundef %2) local_unnamed_addr #0 {
  br label %l_Lean_RBNode_insert___at_Lean_IR_mkLiveVarSet___spec__1.exit

l_Lean_RBNode_insert___at_Lean_IR_mkLiveVarSet___spec__1.exit: ; preds = %l_Lean_RBNode_insert___at_Lean_IR_mkLiveVarSet___spec__1.exit.backedge, %3
  %.017 = phi ptr [ %2, %3 ], [ %36, %l_Lean_RBNode_insert___at_Lean_IR_mkLiveVarSet___spec__1.exit.backedge ]
  %.0 = phi ptr [ %1, %3 ], [ %.0.be, %l_Lean_RBNode_insert___at_Lean_IR_mkLiveVarSet___spec__1.exit.backedge ]
  %4 = ptrtoint ptr %.017 to i64
  %5 = and i64 %4, 1
  %.not.i20 = icmp eq i64 %5, 0
  br i1 %.not.i20, label %9, label %6

6:                                                ; preds = %l_Lean_RBNode_insert___at_Lean_IR_mkLiveVarSet___spec__1.exit
  %7 = lshr i64 %4, 1
  %8 = trunc i64 %7 to i32
  br label %lean_obj_tag.exit

9:                                                ; preds = %l_Lean_RBNode_insert___at_Lean_IR_mkLiveVarSet___spec__1.exit
  %10 = getelementptr i8, ptr %.017, i64 4
  %.val.i = load i32, ptr %10, align 4
  %11 = lshr i32 %.val.i, 24
  br label %lean_obj_tag.exit

lean_obj_tag.exit:                                ; preds = %6, %9
  %.0.i = phi i32 [ %8, %6 ], [ %11, %9 ]
  %12 = icmp eq i32 %.0.i, 0
  br i1 %12, label %13, label %14

13:                                               ; preds = %lean_obj_tag.exit
  ret ptr %.0

14:                                               ; preds = %lean_obj_tag.exit
  %15 = getelementptr inbounds nuw i8, ptr %.017, i64 8
  %16 = load ptr, ptr %15, align 8, !tbaa !10
  %17 = ptrtoint ptr %16 to i64
  %18 = and i64 %17, 1
  %.not = icmp eq i64 %18, 0
  br i1 %.not, label %19, label %lean_inc.exit19

19:                                               ; preds = %14
  %.val.i21 = load i32, ptr %16, align 4, !tbaa !5
  %20 = icmp sgt i32 %.val.i21, 0
  br i1 %20, label %21, label %23, !prof !14

21:                                               ; preds = %19
  %22 = add nuw i32 %.val.i21, 1
  store i32 %22, ptr %16, align 4, !tbaa !5
  br label %lean_inc.exit19

23:                                               ; preds = %19
  %.not.i22 = icmp eq i32 %.val.i21, 0
  br i1 %.not.i22, label %lean_inc.exit19, label %24

24:                                               ; preds = %23
  tail call void @lean_inc_ref_cold(ptr noundef nonnull %16) #4
  br label %lean_inc.exit19

lean_inc.exit19:                                  ; preds = %24, %23, %21, %14
  %25 = getelementptr inbounds nuw i8, ptr %.017, i64 16
  %26 = load ptr, ptr %25, align 8, !tbaa !10
  %27 = ptrtoint ptr %26 to i64
  %28 = and i64 %27, 1
  %.not30 = icmp eq i64 %28, 0
  br i1 %.not30, label %29, label %lean_inc.exit18

29:                                               ; preds = %lean_inc.exit19
  %.val.i23 = load i32, ptr %26, align 4, !tbaa !5
  %30 = icmp sgt i32 %.val.i23, 0
  br i1 %30, label %31, label %33, !prof !14

31:                                               ; preds = %29
  %32 = add nuw i32 %.val.i23, 1
  store i32 %32, ptr %26, align 4, !tbaa !5
  br label %lean_inc.exit18

33:                                               ; preds = %29
  %.not.i24 = icmp eq i32 %.val.i23, 0
  br i1 %.not.i24, label %lean_inc.exit18, label %34

34:                                               ; preds = %33
  tail call void @lean_inc_ref_cold(ptr noundef nonnull %26) #4
  br label %lean_inc.exit18

lean_inc.exit18:                                  ; preds = %34, %33, %31, %lean_inc.exit19
  %35 = getelementptr inbounds nuw i8, ptr %.017, i64 32
  %36 = load ptr, ptr %35, align 8, !tbaa !10
  %37 = ptrtoint ptr %36 to i64
  %38 = and i64 %37, 1
  %.not31 = icmp eq i64 %38, 0
  br i1 %.not31, label %39, label %lean_inc.exit

39:                                               ; preds = %lean_inc.exit18
  %.val.i26 = load i32, ptr %36, align 4, !tbaa !5
  %40 = icmp sgt i32 %.val.i26, 0
  br i1 %40, label %41, label %43, !prof !14

41:                                               ; preds = %39
  %42 = add nuw i32 %.val.i26, 1
  store i32 %42, ptr %36, align 4, !tbaa !5
  br label %lean_inc.exit

43:                                               ; preds = %39
  %.not.i27 = icmp eq i32 %.val.i26, 0
  br i1 %.not.i27, label %lean_inc.exit, label %44

44:                                               ; preds = %43
  tail call void @lean_inc_ref_cold(ptr noundef nonnull %36) #4
  br label %lean_inc.exit

lean_inc.exit:                                    ; preds = %44, %43, %41, %lean_inc.exit18
  br i1 %.not.i20, label %45, label %lean_dec.exit

45:                                               ; preds = %lean_inc.exit
  %46 = load i32, ptr %.017, align 4, !tbaa !5
  %47 = icmp sgt i32 %46, 1
  br i1 %47, label %48, label %50, !prof !14

48:                                               ; preds = %45
  %49 = add nsw i32 %46, -1
  store i32 %49, ptr %.017, align 4, !tbaa !5
  br label %lean_dec.exit

50:                                               ; preds = %45
  %.not.i = icmp eq i32 %46, 0
  br i1 %.not.i, label %lean_dec.exit, label %51

51:                                               ; preds = %50
  tail call void @lean_dec_ref_cold(ptr noundef nonnull %.017) #4
  br label %lean_dec.exit

lean_dec.exit:                                    ; preds = %51, %50, %48, %lean_inc.exit
  %52 = tail call ptr @l_Lean_RBNode_fold___at___private_Lean_Compiler_IR_LiveVars_0__Lean_IR_LiveVars_accumulate___spec__1(ptr noundef %0, ptr noundef %.0, ptr noundef %16)
  %53 = tail call zeroext i8 @l_Lean_RBNode_isRed___rarg(ptr noundef %52) #4
  %54 = icmp eq i8 %53, 0
  %55 = tail call ptr @l_Lean_RBNode_ins___at_Lean_IR_mkLiveVarSet___spec__2(ptr noundef %52, ptr noundef %26, ptr noundef nonnull inttoptr (i64 1 to ptr))
  br i1 %54, label %l_Lean_RBNode_insert___at_Lean_IR_mkLiveVarSet___spec__1.exit.backedge, label %56

l_Lean_RBNode_insert___at_Lean_IR_mkLiveVarSet___spec__1.exit.backedge: ; preds = %lean_dec.exit, %56
  %.0.be = phi ptr [ %55, %lean_dec.exit ], [ %57, %56 ]
  br label %l_Lean_RBNode_insert___at_Lean_IR_mkLiveVarSet___spec__1.exit

56:                                               ; preds = %lean_dec.exit
  %57 = tail call ptr @l_Lean_RBNode_setBlack___rarg(ptr noundef %55) #4
  br label %l_Lean_RBNode_insert___at_Lean_IR_mkLiveVarSet___spec__1.exit.backedge
}